; ModuleID = 'source-C-CXX/41/311.cpp'
source_filename = "source-C-CXX/41/311.cpp"
target datalayout = "e-m:e-p270:32:32-p271:32:32-p272:64:64-i64:64-f80:128-n8:16:32:64-S128"
target triple = "x86_64-pc-linux-gnu"

%"class.std::ios_base::Init" = type { i8 }
%"class.std::basic_istream" = type { i32 (...)**, i64, %"class.std::basic_ios" }
%"class.std::basic_ios" = type { %"class.std::ios_base", %"class.std::basic_ostream"*, i8, i8, %"class.std::basic_streambuf"*, %"class.std::ctype"*, %"class.std::num_put"*, %"class.std::num_get"* }
%"class.std::ios_base" = type { i32 (...)**, i64, i64, i32, i32, i32, %"struct.std::ios_base::_Callback_list"*, %"struct.std::ios_base::_Words", [8 x %"struct.std::ios_base::_Words"], i32, %"struct.std::ios_base::_Words"*, %"class.std::locale" }
%"struct.std::ios_base::_Callback_list" = type { %"struct.std::ios_base::_Callback_list"*, void (i32, %"class.std::ios_base"*, i32)*, i32, i32 }
%"struct.std::ios_base::_Words" = type { i8*, i64 }
%"class.std::locale" = type { %"class.std::locale::_Impl"* }
%"class.std::locale::_Impl" = type { i32, %"class.std::locale::facet"**, i64, %"class.std::locale::facet"**, i8** }
%"class.std::locale::facet" = type <{ i32 (...)**, i32, [4 x i8] }>
%"class.std::basic_ostream" = type { i32 (...)**, %"class.std::basic_ios" }
%"class.std::basic_streambuf" = type { i32 (...)**, i8*, i8*, i8*, i8*, i8*, i8*, %"class.std::locale" }
%"class.std::ctype" = type <{ %"class.std::locale::facet.base", [4 x i8], %struct.__locale_struct*, i8, [7 x i8], i32*, i32*, i16*, i8, [256 x i8], [256 x i8], i8, [6 x i8] }>
%"class.std::locale::facet.base" = type <{ i32 (...)**, i32 }>
%struct.__locale_struct = type { [13 x %struct.__locale_data*], i16*, i32*, i32*, [13 x i8*] }
%struct.__locale_data = type opaque
%"class.std::num_put" = type { %"class.std::locale::facet.base", [4 x i8] }
%"class.std::num_get" = type { %"class.std::locale::facet.base", [4 x i8] }

@_ZStL8__ioinit = internal global %"class.std::ios_base::Init" zeroinitializer, align 1
@__dso_handle = external hidden global i8
@_ZSt3cin = external global %"class.std::basic_istream", align 8
@_ZSt4cout = external global %"class.std::basic_ostream", align 8
@.str = private unnamed_addr constant [2 x i8] c" \00", align 1
@llvm.global_ctors = appending global [1 x { i32, void ()*, i8* }] [{ i32, void ()*, i8* } { i32 65535, void ()* @_GLOBAL__sub_I_311.cpp, i8* null }]

declare void @_ZNSt8ios_base4InitC1Ev(%"class.std::ios_base::Init"* nonnull align 1 dereferenceable(1)) unnamed_addr #0

; Function Attrs: nounwind
declare void @_ZNSt8ios_base4InitD1Ev(%"class.std::ios_base::Init"* nonnull align 1 dereferenceable(1)) unnamed_addr #1

; Function Attrs: nofree nounwind
declare i32 @__cxa_atexit(void (i8*)*, i8*, i8*) local_unnamed_addr #2

; Function Attrs: mustprogress norecurse sspstrong uwtable
define dso_local i32 @main() local_unnamed_addr #3 {
  %1 = alloca [100000 x i32], align 16
  %2 = alloca i32, align 4
  %3 = alloca i32, align 4
  %4 = bitcast [100000 x i32]* %1 to i8*
  call void @llvm.lifetime.start.p0i8(i64 400000, i8* nonnull %4) #6
  %5 = bitcast i32* %2 to i8*
  call void @llvm.lifetime.start.p0i8(i64 4, i8* nonnull %5) #6
  %6 = bitcast i32* %3 to i8*
  call void @llvm.lifetime.start.p0i8(i64 4, i8* nonnull %6) #6
  %7 = call nonnull align 8 dereferenceable(16) %"class.std::basic_istream"* @_ZNSirsERi(%"class.std::basic_istream"* nonnull align 8 dereferenceable(16) @_ZSt3cin, i32* nonnull align 4 dereferenceable(4) %2)
  %8 = load i32, i32* %2, align 4, !tbaa !5
  %9 = icmp sgt i32 %8, 0
  br i1 %9, label %10, label %18

10:                                               ; preds = %0, %10
  %11 = phi i64 [ %14, %10 ], [ 0, %0 ]
  %12 = getelementptr inbounds [100000 x i32], [100000 x i32]* %1, i64 0, i64 %11
  %13 = call nonnull align 8 dereferenceable(16) %"class.std::basic_istream"* @_ZNSirsERi(%"class.std::basic_istream"* nonnull align 8 dereferenceable(16) @_ZSt3cin, i32* nonnull align 4 dereferenceable(4) %12)
  %14 = add nuw nsw i64 %11, 1
  %15 = load i32, i32* %2, align 4, !tbaa !5
  %16 = sext i32 %15 to i64
  %17 = icmp slt i64 %14, %16
  br i1 %17, label %10, label %18, !llvm.loop !9

18:                                               ; preds = %10, %0
  %19 = call nonnull align 8 dereferenceable(16) %"class.std::basic_istream"* @_ZNSirsERi(%"class.std::basic_istream"* nonnull align 8 dereferenceable(16) @_ZSt3cin, i32* nonnull align 4 dereferenceable(4) %3)
  %20 = load i32, i32* %2, align 4, !tbaa !5
  %21 = load i32, i32* %3, align 4
  %22 = icmp sgt i32 %20, 0
  br i1 %22, label %23, label %44

23:                                               ; preds = %18
  %24 = zext i32 %20 to i64
  %25 = and i64 %24, 1
  %26 = icmp eq i32 %20, 1
  br i1 %26, label %29, label %27

27:                                               ; preds = %23
  %28 = and i64 %24, 4294967294
  br label %49

29:                                               ; preds = %99, %23
  %30 = phi i32 [ undef, %23 ], [ %101, %99 ]
  %31 = phi i64 [ 0, %23 ], [ %102, %99 ]
  %32 = phi i32 [ 0, %23 ], [ %101, %99 ]
  %33 = phi i32 [ 0, %23 ], [ %100, %99 ]
  %34 = icmp eq i64 %25, 0
  br i1 %34, label %44, label %35

35:                                               ; preds = %29
  %36 = getelementptr inbounds [100000 x i32], [100000 x i32]* %1, i64 0, i64 %31
  %37 = load i32, i32* %36, align 4, !tbaa !5
  %38 = icmp eq i32 %37, %21
  br i1 %38, label %42, label %39

39:                                               ; preds = %35
  %40 = sext i32 %33 to i64
  %41 = getelementptr inbounds [100000 x i32], [100000 x i32]* %1, i64 0, i64 %40
  store i32 %37, i32* %41, align 4, !tbaa !5
  br label %44

42:                                               ; preds = %35
  %43 = add nsw i32 %32, 1
  br label %44

44:                                               ; preds = %29, %39, %42, %18
  %45 = phi i32 [ 0, %18 ], [ %30, %29 ], [ %32, %39 ], [ %43, %42 ]
  %46 = xor i32 %45, -1
  %47 = add i32 %20, %46
  %48 = icmp sgt i32 %47, 0
  br i1 %48, label %70, label %83

49:                                               ; preds = %99, %27
  %50 = phi i64 [ 0, %27 ], [ %102, %99 ]
  %51 = phi i32 [ 0, %27 ], [ %101, %99 ]
  %52 = phi i32 [ 0, %27 ], [ %100, %99 ]
  %53 = phi i64 [ %28, %27 ], [ %103, %99 ]
  %54 = getelementptr inbounds [100000 x i32], [100000 x i32]* %1, i64 0, i64 %50
  %55 = load i32, i32* %54, align 8, !tbaa !5
  %56 = icmp eq i32 %55, %21
  br i1 %56, label %61, label %57

57:                                               ; preds = %49
  %58 = sext i32 %52 to i64
  %59 = getelementptr inbounds [100000 x i32], [100000 x i32]* %1, i64 0, i64 %58
  store i32 %55, i32* %59, align 4, !tbaa !5
  %60 = add nsw i32 %52, 1
  br label %63

61:                                               ; preds = %49
  %62 = add nsw i32 %51, 1
  br label %63

63:                                               ; preds = %57, %61
  %64 = phi i32 [ %60, %57 ], [ %52, %61 ]
  %65 = phi i32 [ %51, %57 ], [ %62, %61 ]
  %66 = or i64 %50, 1
  %67 = getelementptr inbounds [100000 x i32], [100000 x i32]* %1, i64 0, i64 %66
  %68 = load i32, i32* %67, align 4, !tbaa !5
  %69 = icmp eq i32 %68, %21
  br i1 %69, label %97, label %93

70:                                               ; preds = %44, %70
  %71 = phi i64 [ %76, %70 ], [ 0, %44 ]
  %72 = getelementptr inbounds [100000 x i32], [100000 x i32]* %1, i64 0, i64 %71
  %73 = load i32, i32* %72, align 4, !tbaa !5
  %74 = call nonnull align 8 dereferenceable(8) %"class.std::basic_ostream"* @_ZNSolsEi(%"class.std::basic_ostream"* nonnull align 8 dereferenceable(8) @_ZSt4cout, i32 %73)
  %75 = call nonnull align 8 dereferenceable(8) %"class.std::basic_ostream"* @_ZSt16__ostream_insertIcSt11char_traitsIcEERSt13basic_ostreamIT_T0_ES6_PKS3_l(%"class.std::basic_ostream"* nonnull align 8 dereferenceable(8) %74, i8* nonnull getelementptr inbounds ([2 x i8], [2 x i8]* @.str, i64 0, i64 0), i64 1)
  %76 = add nuw nsw i64 %71, 1
  %77 = load i32, i32* %2, align 4, !tbaa !5
  %78 = add i32 %77, %46
  %79 = sext i32 %78 to i64
  %80 = icmp slt i64 %76, %79
  br i1 %80, label %70, label %81, !llvm.loop !11

81:                                               ; preds = %70
  %82 = trunc i64 %76 to i32
  br label %83

83:                                               ; preds = %81, %44
  %84 = phi i32 [ 0, %44 ], [ %82, %81 ]
  %85 = phi i32 [ %47, %44 ], [ %78, %81 ]
  %86 = icmp eq i32 %84, %85
  br i1 %86, label %87, label %92

87:                                               ; preds = %83
  %88 = zext i32 %84 to i64
  %89 = getelementptr inbounds [100000 x i32], [100000 x i32]* %1, i64 0, i64 %88
  %90 = load i32, i32* %89, align 4, !tbaa !5
  %91 = call nonnull align 8 dereferenceable(8) %"class.std::basic_ostream"* @_ZNSolsEi(%"class.std::basic_ostream"* nonnull align 8 dereferenceable(8) @_ZSt4cout, i32 %90)
  br label %92

92:                                               ; preds = %87, %83
  call void @llvm.lifetime.end.p0i8(i64 4, i8* nonnull %6) #6
  call void @llvm.lifetime.end.p0i8(i64 4, i8* nonnull %5) #6
  call void @llvm.lifetime.end.p0i8(i64 400000, i8* nonnull %4) #6
  ret i32 0

93:                                               ; preds = %63
  %94 = sext i32 %64 to i64
  %95 = getelementptr inbounds [100000 x i32], [100000 x i32]* %1, i64 0, i64 %94
  store i32 %68, i32* %95, align 4, !tbaa !5
  %96 = add nsw i32 %64, 1
  br label %99

97:                                               ; preds = %63
  %98 = add nsw i32 %65, 1
  br label %99

99:                                               ; preds = %97, %93
  %100 = phi i32 [ %96, %93 ], [ %64, %97 ]
  %101 = phi i32 [ %65, %93 ], [ %98, %97 ]
  %102 = add nuw nsw i64 %50, 2
  %103 = add i64 %53, -2
  %104 = icmp eq i64 %103, 0
  br i1 %104, label %29, label %49, !llvm.loop !12
}

; Function Attrs: argmemonly mustprogress nofree nosync nounwind willreturn
declare void @llvm.lifetime.start.p0i8(i64 immarg, i8* nocapture) #4

declare nonnull align 8 dereferenceable(16) %"class.std::basic_istream"* @_ZNSirsERi(%"class.std::basic_istream"* nonnull align 8 dereferenceable(16), i32* nonnull align 4 dereferenceable(4)) local_unnamed_addr #0

declare nonnull align 8 dereferenceable(8) %"class.std::basic_ostream"* @_ZNSolsEi(%"class.std::basic_ostream"* nonnull align 8 dereferenceable(8), i32) local_unnamed_addr #0

; Function Attrs: argmemonly mustprogress nofree nosync nounwind willreturn
declare void @llvm.lifetime.end.p0i8(i64 immarg, i8* nocapture) #4

declare nonnull align 8 dereferenceable(8) %"class.std::basic_ostream"* @_ZSt16__ostream_insertIcSt11char_traitsIcEERSt13basic_ostreamIT_T0_ES6_PKS3_l(%"class.std::basic_ostream"* nonnull align 8 dereferenceable(8), i8*, i64) local_unnamed_addr #0

; Function Attrs: sspstrong uwtable
define internal void @_GLOBAL__sub_I_311.cpp() #5 section ".text.startup" {
  tail call void @_ZNSt8ios_base4InitC1Ev(%"class.std::ios_base::Init"* nonnull align 1 dereferenceable(1) @_ZStL8__ioinit)
  %1 = tail call i32 @__cxa_atexit(void (i8*)* bitcast (void (%"class.std::ios_base::Init"*)* @_ZNSt8ios_base4InitD1Ev to void (i8*)*), i8* getelementptr inbounds (%"class.std::ios_base::Init", %"class.std::ios_base::Init"* @_ZStL8__ioinit, i64 0, i32 0), i8* nonnull @__dso_handle) #6
  ret void
}


!llvm.module.flags = !{!0, !1, !2, !3}
!llvm.ident = !{!4}

!0 = !{i32 1, !"wchar_size", i32 4}
!1 = !{i32 7, !"PIC Level", i32 2}
!2 = !{i32 7, !"PIE Level", i32 2}
!3 = !{i32 7, !"uwtable", i32 1}
!4 = !{!"clang version 13.0.0"}
!5 = !{!6, !6, i64 0}
!6 = !{!"int", !7, i64 0}
!7 = !{!"omnipotent char", !8, i64 0}
!8 = !{!"Simple C++ TBAA"}
!9 = distinct !{!9, !10}
!10 = !{!"llvm.loop.mustprogress"}
!11 = distinct !{!11, !10}
!12 = distinct !{!12, !10}
